target datalayout = "e-m:e-p270:32:32-p271:32:32-p272:64:64-i64:64-i128:128-f80:128-n8:16:32:64-S128"
target triple = "x86_64-pc-linux-gnu"

%class.outputStream = type { ptr, i32, i8, i32, i64, %class.TimeStamp, ptr, i64 }
%class.TimeStamp = type { i64 }
%class.stringStream = type <{ %class.outputStream, ptr, i64, i64, i8, [48 x i8], [7 x i8] }>
%class.NamedCounter = type { ptr, i32, i32, ptr }
%class.JVMState = type { ptr, i32, i32, i32, i32, i32, i32, i32, i32, i32, ptr, ptr }
%class.ciMethod = type { %class.ciMetadata, %class.ciFlags, ptr, ptr, ptr, ptr, ptr, i32, i32, i32, i32, i32, i32, i32, i32, i32, i8, i8, i8, i8, i8, i8, i8, i8, i8, ptr, ptr, ptr, ptr, ptr }
%class.ciMetadata = type { %class.ciBaseObject.base, ptr }
%class.ciBaseObject.base = type <{ ptr, i32 }>
%class.ciFlags = type <{ i32, i8, i8, [2 x i8] }>
%class.ciKlass = type <{ %class.ciType.base, [7 x i8], ptr, i32, [4 x i8] }>
%class.ciType.base = type <{ %class.ciMetadata, i8 }>
%"struct.Atomic::CmpxchgImpl" = type { i8 }
%"struct.Atomic::PlatformCmpxchg" = type { i8 }

@_ZN11OptoRuntime15_named_countersE = hidden global ptr null, align 8
@.str.27 = private unnamed_addr constant [2 x i8] c" \00", align 1
@.str.28 = private unnamed_addr constant [6 x i8] c"%s.%s\00", align 1
@.str.29 = private unnamed_addr constant [10 x i8] c"no method\00", align 1
@.str.30 = private unnamed_addr constant [4 x i8] c"@%d\00", align 1

; Function Attrs: mustprogress nounwind uwtable
define linkonce_odr hidden noundef ptr @_ZNK6Atomic15PlatformCmpxchgILm8EEclIP12NamedCounterEET_PVS5_S5_S5_19atomic_memory_order(ptr noundef nonnull align 1 dereferenceable(1) %0, ptr noundef %1, ptr noundef %2, ptr noundef %3, i32 noundef %4) #1 comdat align 2 {
  %6 = alloca ptr, align 8
  %7 = alloca ptr, align 8
  %8 = alloca ptr, align 8
  %9 = alloca ptr, align 8
  %10 = alloca i32, align 4
  store ptr %0, ptr %6, align 8
  store ptr %1, ptr %7, align 8
  store ptr %2, ptr %8, align 8
  store ptr %3, ptr %9, align 8
  store i32 %4, ptr %10, align 4
  %11 = load ptr, ptr %9, align 8
  %12 = load ptr, ptr %8, align 8
  %13 = load ptr, ptr %7, align 8
  %14 = call ptr asm sideeffect "lock cmpxchgq $1,($3)", "={ax},r,{ax},r,~{cc},~{memory},~{dirflag},~{fpsr},~{flags}"(ptr %11, ptr %12, ptr %13) #9, !srcloc !15
  store ptr %14, ptr %9, align 8
  %15 = load ptr, ptr %9, align 8
  ret ptr %15
}

; Function Attrs: mustprogress nounwind uwtable
define linkonce_odr hidden noundef ptr @_ZNK6Atomic11CmpxchgImplIP12NamedCounterS2_S2_vEclEPVS2_S2_S2_19atomic_memory_order(ptr noundef nonnull align 1 dereferenceable(1) %0, ptr noundef %1, ptr noundef %2, ptr noundef %3, i32 noundef %4) #1 comdat align 2 {
  %6 = alloca ptr, align 8
  %7 = alloca ptr, align 8
  %8 = alloca ptr, align 8
  %9 = alloca ptr, align 8
  %10 = alloca i32, align 4
  %11 = alloca ptr, align 8
  %12 = alloca ptr, align 8
  %13 = alloca %"struct.Atomic::PlatformCmpxchg", align 1
  store ptr %0, ptr %6, align 8
  store ptr %1, ptr %7, align 8
  store ptr %2, ptr %8, align 8
  store ptr %3, ptr %9, align 8
  store i32 %4, ptr %10, align 4
  %14 = load ptr, ptr %9, align 8
  store ptr %14, ptr %11, align 8
  %15 = load ptr, ptr %8, align 8
  store ptr %15, ptr %12, align 8
  %16 = load ptr, ptr %7, align 8
  %17 = load ptr, ptr %12, align 8
  %18 = load ptr, ptr %11, align 8
  %19 = load i32, ptr %10, align 4
  %20 = call noundef ptr @_ZNK6Atomic15PlatformCmpxchgILm8EEclIP12NamedCounterEET_PVS5_S5_S5_19atomic_memory_order(ptr noundef nonnull align 1 dereferenceable(1) %13, ptr noundef %16, ptr noundef %17, ptr noundef %18, i32 noundef %19)
  ret ptr %20
}

; Function Attrs: mustprogress nounwind uwtable
define linkonce_odr hidden noundef ptr @_ZN6Atomic7cmpxchgIP12NamedCounterS2_S2_EET_PVS3_T0_T1_19atomic_memory_order(ptr noundef %0, ptr noundef %1, ptr noundef %2, i32 noundef %3) #1 comdat align 2 {
  %5 = alloca ptr, align 8
  %6 = alloca ptr, align 8
  %7 = alloca ptr, align 8
  %8 = alloca i32, align 4
  %9 = alloca %"struct.Atomic::CmpxchgImpl", align 1
  store ptr %0, ptr %5, align 8
  store ptr %1, ptr %6, align 8
  store ptr %2, ptr %7, align 8
  store i32 %3, ptr %8, align 4
  %10 = load ptr, ptr %5, align 8
  %11 = load ptr, ptr %6, align 8
  %12 = load ptr, ptr %7, align 8
  %13 = load i32, ptr %8, align 4
  %14 = call noundef ptr @_ZNK6Atomic11CmpxchgImplIP12NamedCounterS2_S2_vEclEPVS2_S2_S2_19atomic_memory_order(ptr noundef nonnull align 1 dereferenceable(1) %9, ptr noundef %10, ptr noundef %11, ptr noundef %12, i32 noundef %13)
  ret ptr %14
}

; Function Attrs: mustprogress nounwind uwtable
define linkonce_odr hidden void @_ZN12NamedCounter8set_nextEPS_(ptr noundef nonnull align 8 dereferenceable(24) %0, ptr noundef %1) #1 comdat align 2 {
  %3 = alloca ptr, align 8
  %4 = alloca ptr, align 8
  store ptr %0, ptr %3, align 8
  store ptr %1, ptr %4, align 8
  %5 = load ptr, ptr %3, align 8
  %6 = load ptr, ptr %4, align 8
  %7 = getelementptr inbounds %class.NamedCounter, ptr %5, i32 0, i32 3
  store ptr %6, ptr %7, align 8
  ret void
}

; Function Attrs: mustprogress nounwind uwtable
define linkonce_odr hidden void @_ZN12NamedCounterC2EPKcNS_10CounterTagE(ptr noundef nonnull align 8 dereferenceable(24) %0, ptr noundef %1, i32 noundef %2) unnamed_addr #1 comdat align 2 {
  %4 = alloca ptr, align 8
  %5 = alloca ptr, align 8
  %6 = alloca i32, align 4
  store ptr %0, ptr %4, align 8
  store ptr %1, ptr %5, align 8
  store i32 %2, ptr %6, align 4
  %7 = load ptr, ptr %4, align 8
  %8 = getelementptr inbounds %class.NamedCounter, ptr %7, i32 0, i32 0
  %9 = load ptr, ptr %5, align 8
  %10 = icmp eq ptr %9, null
  br i1 %10, label %11, label %12

11:                                               ; preds = %3
  br label %15

12:                                               ; preds = %3
  %13 = load ptr, ptr %5, align 8
  %14 = call noundef ptr @_ZN2os6strdupEPKc8MEMFLAGS(ptr noundef %13, i8 noundef zeroext 9)
  br label %15

15:                                               ; preds = %12, %11
  %16 = phi ptr [ null, %11 ], [ %14, %12 ]
  store ptr %16, ptr %8, align 8
  %17 = getelementptr inbounds %class.NamedCounter, ptr %7, i32 0, i32 1
  store i32 0, ptr %17, align 8
  %18 = getelementptr inbounds %class.NamedCounter, ptr %7, i32 0, i32 2
  %19 = load i32, ptr %6, align 4
  store i32 %19, ptr %18, align 4
  %20 = getelementptr inbounds %class.NamedCounter, ptr %7, i32 0, i32 3
  store ptr null, ptr %20, align 8
  ret void
}

; Function Attrs: mustprogress nounwind uwtable
define linkonce_odr hidden noundef ptr @_ZNK12stringStream6freezeEv(ptr noundef nonnull align 8 dereferenceable(129) %0) #1 comdat align 2 {
  %2 = alloca ptr, align 8
  store ptr %0, ptr %2, align 8
  %3 = load ptr, ptr %2, align 8
  %4 = getelementptr inbounds %class.stringStream, ptr %3, i32 0, i32 1
  %5 = load ptr, ptr %4, align 8
  ret ptr %5
}

; Function Attrs: mustprogress nounwind uwtable
define linkonce_odr hidden noundef ptr @_ZNK8ciMethod4nameEv(ptr noundef nonnull align 8 dereferenceable(160) %0) #1 comdat align 2 {
  %2 = alloca ptr, align 8
  store ptr %0, ptr %2, align 8
  %3 = load ptr, ptr %2, align 8
  %4 = getelementptr inbounds %class.ciMethod, ptr %3, i32 0, i32 2
  %5 = load ptr, ptr %4, align 8
  ret ptr %5
}

; Function Attrs: mustprogress nounwind uwtable
define linkonce_odr hidden noundef ptr @_ZNK7ciKlass4nameEv(ptr noundef nonnull align 8 dereferenceable(44) %0) #1 comdat align 2 {
  %2 = alloca ptr, align 8
  store ptr %0, ptr %2, align 8
  %3 = load ptr, ptr %2, align 8
  %4 = getelementptr inbounds %class.ciKlass, ptr %3, i32 0, i32 2
  %5 = load ptr, ptr %4, align 8
  ret ptr %5
}

; Function Attrs: mustprogress nounwind uwtable
define linkonce_odr hidden noundef ptr @_ZNK8ciMethod6holderEv(ptr noundef nonnull align 8 dereferenceable(160) %0) #1 comdat align 2 {
  %2 = alloca ptr, align 8
  store ptr %0, ptr %2, align 8
  %3 = load ptr, ptr %2, align 8
  %4 = getelementptr inbounds %class.ciMethod, ptr %3, i32 0, i32 3
  %5 = load ptr, ptr %4, align 8
  ret ptr %5
}

; Function Attrs: mustprogress nounwind uwtable
define linkonce_odr hidden noundef i32 @_ZNK8JVMState3bciEv(ptr noundef nonnull align 8 dereferenceable(64) %0) #1 comdat align 2 {
  %2 = alloca ptr, align 8
  store ptr %0, ptr %2, align 8
  %3 = load ptr, ptr %2, align 8
  %4 = getelementptr inbounds %class.JVMState, ptr %3, i32 0, i32 8
  %5 = load i32, ptr %4, align 4
  ret i32 %5
}

; Function Attrs: mustprogress nounwind uwtable
define linkonce_odr hidden noundef ptr @_ZNK8JVMState6methodEv(ptr noundef nonnull align 8 dereferenceable(64) %0) #1 comdat align 2 {
  %2 = alloca ptr, align 8
  store ptr %0, ptr %2, align 8
  %3 = load ptr, ptr %2, align 8
  %4 = getelementptr inbounds %class.JVMState, ptr %3, i32 0, i32 10
  %5 = load ptr, ptr %4, align 8
  ret ptr %5
}

; Function Attrs: mustprogress nounwind uwtable
define linkonce_odr hidden noundef zeroext i1 @_ZNK8JVMState10has_methodEv(ptr noundef nonnull align 8 dereferenceable(64) %0) #1 comdat align 2 {
  %2 = alloca ptr, align 8
  store ptr %0, ptr %2, align 8
  %3 = load ptr, ptr %2, align 8
  %4 = getelementptr inbounds %class.JVMState, ptr %3, i32 0, i32 10
  %5 = load ptr, ptr %4, align 8
  %6 = icmp ne ptr %5, null
  ret i1 %6
}

; Function Attrs: mustprogress nounwind uwtable
define linkonce_odr hidden noundef i32 @_ZNK8JVMState5depthEv(ptr noundef nonnull align 8 dereferenceable(64) %0) #1 comdat align 2 {
  %2 = alloca ptr, align 8
  store ptr %0, ptr %2, align 8
  %3 = load ptr, ptr %2, align 8
  %4 = getelementptr inbounds %class.JVMState, ptr %3, i32 0, i32 1
  %5 = load i32, ptr %4, align 8
  ret i32 %5
}

; Function Attrs: mustprogress nounwind uwtable
define hidden noundef ptr @_ZN11OptoRuntime17new_named_counterEP8JVMStateN12NamedCounter10CounterTagE(ptr noundef %0, i32 noundef %1) #1 align 2 {
  %3 = alloca i64, align 8
  %4 = alloca i8, align 1
  %5 = alloca i64, align 8
  %6 = alloca ptr, align 8
  %7 = alloca i32, align 4
  %8 = alloca i32, align 4
  %9 = alloca i8, align 1
  %10 = alloca %class.stringStream, align 8
  %11 = alloca i32, align 4
  %12 = alloca ptr, align 8
  %13 = alloca ptr, align 8
  %14 = alloca i32, align 4
  %15 = alloca ptr, align 8
  %16 = alloca ptr, align 8
  store ptr %0, ptr %6, align 8
  store i32 %1, ptr %7, align 4
  %17 = load ptr, ptr %6, align 8
  %18 = call noundef i32 @_ZNK8JVMState5depthEv(ptr noundef nonnull align 8 dereferenceable(64) %17)
  store i32 %18, ptr %8, align 4
  store i8 1, ptr %9, align 1
  call void @_ZN12stringStreamC1Em(ptr noundef nonnull align 8 dereferenceable(129) %10, i64 noundef 0)
  %19 = load i32, ptr %8, align 4
  store i32 %19, ptr %11, align 4
  br label %20

20:                                               ; preds = %59, %2
  %21 = load i32, ptr %11, align 4
  %22 = icmp sge i32 %21, 1
  br i1 %22, label %23, label %62

23:                                               ; preds = %20
  %24 = load ptr, ptr %6, align 8
  %25 = load i32, ptr %11, align 4
  %26 = call noundef ptr @_ZNK8JVMState8of_depthEi(ptr noundef nonnull align 8 dereferenceable(64) %24, i32 noundef %25)
  store ptr %26, ptr %12, align 8
  %27 = load ptr, ptr %12, align 8
  %28 = call noundef zeroext i1 @_ZNK8JVMState10has_methodEv(ptr noundef nonnull align 8 dereferenceable(64) %27)
  br i1 %28, label %29, label %32

29:                                               ; preds = %23
  %30 = load ptr, ptr %12, align 8
  %31 = call noundef ptr @_ZNK8JVMState6methodEv(ptr noundef nonnull align 8 dereferenceable(64) %30)
  br label %33

32:                                               ; preds = %23
  br label %33

33:                                               ; preds = %32, %29
  %34 = phi ptr [ %31, %29 ], [ null, %32 ]
  store ptr %34, ptr %13, align 8
  %35 = load i8, ptr %9, align 1
  %36 = trunc i8 %35 to i1
  br i1 %36, label %38, label %37

37:                                               ; preds = %33
  call void (ptr, ptr, ...) @_ZN12outputStream5printEPKcz(ptr noundef nonnull align 8 dereferenceable(56) %10, ptr noundef @.str.27)
  br label %39

38:                                               ; preds = %33
  store i8 0, ptr %9, align 1
  br label %39

39:                                               ; preds = %38, %37
  %40 = load ptr, ptr %12, align 8
  %41 = call noundef i32 @_ZNK8JVMState3bciEv(ptr noundef nonnull align 8 dereferenceable(64) %40)
  store i32 %41, ptr %14, align 4
  %42 = load i32, ptr %14, align 4
  %43 = icmp slt i32 %42, 0
  br i1 %43, label %44, label %45

44:                                               ; preds = %39
  store i32 0, ptr %14, align 4
  br label %45

45:                                               ; preds = %44, %39
  %46 = load ptr, ptr %13, align 8
  %47 = icmp ne ptr %46, null
  br i1 %47, label %48, label %56

48:                                               ; preds = %45
  %49 = load ptr, ptr %13, align 8
  %50 = call noundef ptr @_ZNK8ciMethod6holderEv(ptr noundef nonnull align 8 dereferenceable(160) %49)
  %51 = call noundef ptr @_ZNK7ciKlass4nameEv(ptr noundef nonnull align 8 dereferenceable(44) %50)
  %52 = call noundef ptr @_ZN8ciSymbol7as_utf8Ev(ptr noundef nonnull align 8 dereferenceable(28) %51)
  %53 = load ptr, ptr %13, align 8
  %54 = call noundef ptr @_ZNK8ciMethod4nameEv(ptr noundef nonnull align 8 dereferenceable(160) %53)
  %55 = call noundef ptr @_ZN8ciSymbol7as_utf8Ev(ptr noundef nonnull align 8 dereferenceable(28) %54)
  call void (ptr, ptr, ...) @_ZN12outputStream5printEPKcz(ptr noundef nonnull align 8 dereferenceable(56) %10, ptr noundef @.str.28, ptr noundef %52, ptr noundef %55)
  br label %57

56:                                               ; preds = %45
  call void (ptr, ptr, ...) @_ZN12outputStream5printEPKcz(ptr noundef nonnull align 8 dereferenceable(56) %10, ptr noundef @.str.29)
  br label %57

57:                                               ; preds = %56, %48
  %58 = load i32, ptr %14, align 4
  call void (ptr, ptr, ...) @_ZN12outputStream5printEPKcz(ptr noundef nonnull align 8 dereferenceable(56) %10, ptr noundef @.str.30, i32 noundef %58)
  br label %59

59:                                               ; preds = %57
  %60 = load i32, ptr %11, align 4
  %61 = add nsw i32 %60, -1
  store i32 %61, ptr %11, align 4
  br label %20, !llvm.loop !11

62:                                               ; preds = %20
  store i64 24, ptr %5, align 8
  %63 = load i64, ptr %5, align 8
  store i64 %63, ptr %3, align 8
  store i8 7, ptr %4, align 1
  %64 = load i64, ptr %3, align 8
  %65 = load i8, ptr %4, align 1
  %66 = call noundef ptr @_Z12AllocateHeapm8MEMFLAGSN17AllocFailStrategy13AllocFailEnumE(i64 noundef %64, i8 noundef zeroext %65, i32 noundef 0) #9
  %67 = call noundef ptr @_ZNK12stringStream6freezeEv(ptr noundef nonnull align 8 dereferenceable(129) %10)
  %68 = load i32, ptr %7, align 4
  call void @_ZN12NamedCounterC2EPKcNS_10CounterTagE(ptr noundef nonnull align 8 dereferenceable(24) %66, ptr noundef %67, i32 noundef %68)
  store ptr %66, ptr %15, align 8
  br label %69

69:                                               ; preds = %74, %62
  %70 = load ptr, ptr %15, align 8
  call void @_ZN12NamedCounter8set_nextEPS_(ptr noundef nonnull align 8 dereferenceable(24) %70, ptr noundef null)
  %71 = load volatile ptr, ptr @_ZN11OptoRuntime15_named_countersE, align 8
  store ptr %71, ptr %16, align 8
  %72 = load ptr, ptr %15, align 8
  %73 = load ptr, ptr %16, align 8
  call void @_ZN12NamedCounter8set_nextEPS_(ptr noundef nonnull align 8 dereferenceable(24) %72, ptr noundef %73)
  br label %74

74:                                               ; preds = %69
  %75 = load ptr, ptr %16, align 8
  %76 = load ptr, ptr %15, align 8
  %77 = call noundef ptr @_ZN6Atomic7cmpxchgIP12NamedCounterS2_S2_EET_PVS3_T0_T1_19atomic_memory_order(ptr noundef @_ZN11OptoRuntime15_named_countersE, ptr noundef %75, ptr noundef %76, i32 noundef 8)
  %78 = load ptr, ptr %16, align 8
  %79 = icmp ne ptr %77, %78
  br i1 %79, label %69, label %80, !llvm.loop !12

80:                                               ; preds = %74
  %81 = load ptr, ptr %15, align 8
  call void @_ZN12stringStreamD1Ev(ptr noundef nonnull align 8 dereferenceable(129) %10) #9
  ret ptr %81
}