; Function Attrs: mustprogress nounwind uwtable
define hidden noundef ptr @_ZN11OptoRuntime17new_named_counterEP8JVMStateN12NamedCounter10CounterTagE(ptr noundef %0, i32 noundef %1) local_unnamed_addr #0 align 2 {
  %3 = alloca %class.stringStream, align 8
  %4 = getelementptr inbounds i8, ptr %0, i64 8
  %5 = load i32, ptr %4, align 8
  call void @_ZN12stringStreamC1Em(ptr noundef nonnull align 8 dereferenceable(129) %3, i64 noundef 0) #12
  %6 = icmp sgt i32 %5, 0
  br i1 %6, label %.lr.ph, label %._crit_edge

.lr.ph:                                           ; preds = %2, %24
  %.029 = phi i1 [ false, %24 ], [ true, %2 ]
  %.02528 = phi i32 [ %25, %24 ], [ %5, %2 ]
  %7 = call noundef ptr @_ZNK8JVMState8of_depthEi(ptr noundef nonnull align 8 dereferenceable(64) %0, i32 noundef %.02528) #12
  %8 = getelementptr inbounds i8, ptr %7, i64 48
  %9 = load ptr, ptr %8, align 8
  br i1 %.029, label %11, label %10

10:                                               ; preds = %.lr.ph
  call void (ptr, ptr, ...) @_ZN12outputStream5printEPKcz(ptr noundef nonnull align 8 dereferenceable(56) %3, ptr noundef nonnull @.str.27) #12
  br label %11

11:                                               ; preds = %.lr.ph, %10
  %12 = getelementptr inbounds i8, ptr %7, i64 36
  %13 = load i32, ptr %12, align 4
  %spec.store.select = call i32 @llvm.smax.i32(i32 %13, i32 0)
  %.not27 = icmp eq ptr %9, null
  br i1 %.not27, label %23, label %14

14:                                               ; preds = %11
  %15 = getelementptr inbounds i8, ptr %9, i64 40
  %16 = load ptr, ptr %15, align 8
  %17 = getelementptr inbounds i8, ptr %16, i64 32
  %18 = load ptr, ptr %17, align 8
  %19 = call noundef ptr @_ZN8ciSymbol7as_utf8Ev(ptr noundef nonnull align 8 dereferenceable(28) %18) #12
  %20 = getelementptr inbounds i8, ptr %9, i64 32
  %21 = load ptr, ptr %20, align 8
  %22 = call noundef ptr @_ZN8ciSymbol7as_utf8Ev(ptr noundef nonnull align 8 dereferenceable(28) %21) #12
  call void (ptr, ptr, ...) @_ZN12outputStream5printEPKcz(ptr noundef nonnull align 8 dereferenceable(56) %3, ptr noundef nonnull @.str.28, ptr noundef %19, ptr noundef %22) #12
  br label %24

23:                                               ; preds = %11
  call void (ptr, ptr, ...) @_ZN12outputStream5printEPKcz(ptr noundef nonnull align 8 dereferenceable(56) %3, ptr noundef nonnull @.str.29) #12
  br label %24

24:                                               ; preds = %23, %14
  call void (ptr, ptr, ...) @_ZN12outputStream5printEPKcz(ptr noundef nonnull align 8 dereferenceable(56) %3, ptr noundef nonnull @.str.30, i32 noundef %spec.store.select) #12
  %25 = add nsw i32 %.02528, -1
  %26 = icmp sgt i32 %.02528, 1
  br i1 %26, label %.lr.ph, label %._crit_edge, !llvm.loop !36

._crit_edge:                                      ; preds = %24, %2
  %27 = call noundef ptr @_Z12AllocateHeapm8MEMFLAGSN17AllocFailStrategy13AllocFailEnumE(i64 noundef 24, i8 noundef zeroext 7, i32 noundef 0) #12
  %28 = getelementptr inbounds i8, ptr %3, i64 56
  %29 = load ptr, ptr %28, align 8
  %30 = icmp eq ptr %29, null
  br i1 %30, label %_ZN12NamedCounterC2EPKcNS_10CounterTagE.exit, label %31

31:                                               ; preds = %._crit_edge
  %32 = call noundef ptr @_ZN2os6strdupEPKc8MEMFLAGS(ptr noundef nonnull %29, i8 noundef zeroext 9) #12
  br label %_ZN12NamedCounterC2EPKcNS_10CounterTagE.exit

_ZN12NamedCounterC2EPKcNS_10CounterTagE.exit:     ; preds = %._crit_edge, %31
  %33 = phi ptr [ %32, %31 ], [ null, %._crit_edge ]
  store ptr %33, ptr %27, align 8
  %34 = getelementptr inbounds i8, ptr %27, i64 8
  store i32 0, ptr %34, align 8
  %35 = getelementptr inbounds i8, ptr %27, i64 12
  store i32 %1, ptr %35, align 4
  %36 = getelementptr inbounds i8, ptr %27, i64 16
  br label %37

37:                                               ; preds = %37, %_ZN12NamedCounterC2EPKcNS_10CounterTagE.exit
  %38 = load volatile ptr, ptr @_ZN11OptoRuntime15_named_countersE, align 8
  store ptr %38, ptr %36, align 8
  %39 = call noundef ptr asm sideeffect "lock cmpxchgq $1,($3)", "={ax},r,{ax},r,~{cc},~{memory},~{dirflag},~{fpsr},~{flags}"(ptr nonnull %27, ptr %38, ptr nonnull @_ZN11OptoRuntime15_named_countersE) #12, !srcloc !37
  %.not = icmp eq ptr %39, %38
  br i1 %.not, label %40, label %37, !llvm.loop !38

40:                                               ; preds = %37
  call void @_ZN12stringStreamD1Ev(ptr noundef nonnull align 8 dereferenceable(129) %3) #12
  ret ptr %27
}